; ModuleID = '7/1105.c'
source_filename = "7/1105.c"
target datalayout = "e-m:e-p270:32:32-p271:32:32-p272:64:64-i64:64-f80:128-n8:16:32:64-S128"
target triple = "x86_64-pc-linux-gnu"

@.str = private unnamed_addr constant [7 x i8] c"%s%s%s\00", align 1
@.str.1 = private unnamed_addr constant [4 x i8] c"%s\0A\00", align 1

; Function Attrs: noinline nounwind uwtable
define dso_local i32 @main() #0 {
  %1 = alloca i32, align 4
  %2 = alloca [256 x i8], align 16
  %3 = alloca [256 x i8], align 16
  %4 = alloca [256 x i8], align 16
  %5 = alloca i32, align 4
  %6 = alloca i32, align 4
  %7 = alloca i32, align 4
  %8 = alloca i32, align 4
  %9 = alloca i32, align 4
  %10 = alloca i32, align 4
  store i32 0, i32* %1, align 4
  store i32 0, i32* %10, align 4
  %11 = getelementptr inbounds [256 x i8], [256 x i8]* %3, i64 0, i64 0
  %12 = getelementptr inbounds [256 x i8], [256 x i8]* %2, i64 0, i64 0
  %13 = getelementptr inbounds [256 x i8], [256 x i8]* %4, i64 0, i64 0
  %14 = call i32 (i8*, ...) @__isoc99_scanf(i8* getelementptr inbounds ([7 x i8], [7 x i8]* @.str, i64 0, i64 0), i8* %11, i8* %12, i8* %13)
  %15 = getelementptr inbounds [256 x i8], [256 x i8]* %2, i64 0, i64 0
  %16 = call i64 @strlen(i8* %15) #3
  %17 = trunc i64 %16 to i32
  store i32 %17, i32* %5, align 4
  %18 = getelementptr inbounds [256 x i8], [256 x i8]* %3, i64 0, i64 0
  %19 = call i64 @strlen(i8* %18) #3
  %20 = trunc i64 %19 to i32
  store i32 %20, i32* %6, align 4
  store i32 0, i32* %7, align 4
  br label %21

21:                                               ; preds = %76, %0
  %22 = load i32, i32* %7, align 4
  %23 = load i32, i32* %6, align 4
  %24 = load i32, i32* %5, align 4
  %25 = sub nsw i32 %23, %24
  %26 = add nsw i32 %25, 1
  %27 = icmp slt i32 %22, %26
  br i1 %27, label %28, label %79

28:                                               ; preds = %21
  %29 = load i32, i32* %7, align 4
  %30 = sext i32 %29 to i64
  %31 = getelementptr inbounds [256 x i8], [256 x i8]* %3, i64 0, i64 %30
  %32 = load i8, i8* %31, align 1
  %33 = sext i8 %32 to i32
  %34 = getelementptr inbounds [256 x i8], [256 x i8]* %2, i64 0, i64 0
  %35 = load i8, i8* %34, align 16
  %36 = sext i8 %35 to i32
  %37 = icmp eq i32 %33, %36
  br i1 %37, label %38, label %75

38:                                               ; preds = %28
  store i32 1, i32* %9, align 4
  %39 = load i32, i32* %7, align 4
  %40 = add nsw i32 %39, 1
  store i32 %40, i32* %8, align 4
  br label %41

41:                                               ; preds = %66, %38
  %42 = load i32, i32* %8, align 4
  %43 = load i32, i32* %7, align 4
  %44 = load i32, i32* %5, align 4
  %45 = add nsw i32 %43, %44
  %46 = icmp slt i32 %42, %45
  br i1 %46, label %47, label %69

47:                                               ; preds = %41
  %48 = load i32, i32* %8, align 4
  %49 = sext i32 %48 to i64
  %50 = getelementptr inbounds [256 x i8], [256 x i8]* %3, i64 0, i64 %49
  %51 = load i8, i8* %50, align 1
  %52 = sext i8 %51 to i32
  %53 = load i32, i32* %8, align 4
  %54 = load i32, i32* %7, align 4
  %55 = sub nsw i32 %53, %54
  %56 = sext i32 %55 to i64
  %57 = getelementptr inbounds [256 x i8], [256 x i8]* %2, i64 0, i64 %56
  %58 = load i8, i8* %57, align 1
  %59 = sext i8 %58 to i32
  %60 = icmp ne i32 %52, %59
  br i1 %60, label %61, label %62

61:                                               ; preds = %47
  br label %69

62:                                               ; preds = %47
  %63 = load i32, i32* %9, align 4
  %64 = add nsw i32 %63, 1
  store i32 %64, i32* %9, align 4
  br label %65

65:                                               ; preds = %62
  br label %66

66:                                               ; preds = %65
  %67 = load i32, i32* %8, align 4
  %68 = add nsw i32 %67, 1
  store i32 %68, i32* %8, align 4
  br label %41

69:                                               ; preds = %61, %41
  %70 = load i32, i32* %9, align 4
  %71 = load i32, i32* %5, align 4
  %72 = icmp eq i32 %70, %71
  br i1 %72, label %73, label %74

73:                                               ; preds = %69
  store i32 1, i32* %10, align 4
  br label %79

74:                                               ; preds = %69
  br label %75

75:                                               ; preds = %74, %28
  br label %76

76:                                               ; preds = %75
  %77 = load i32, i32* %7, align 4
  %78 = add nsw i32 %77, 1
  store i32 %78, i32* %7, align 4
  br label %21

79:                                               ; preds = %73, %21
  %80 = load i32, i32* %10, align 4
  %81 = icmp eq i32 %80, 1
  br i1 %81, label %82, label %104

82:                                               ; preds = %79
  %83 = load i32, i32* %7, align 4
  store i32 %83, i32* %8, align 4
  br label %84

84:                                               ; preds = %100, %82
  %85 = load i32, i32* %8, align 4
  %86 = load i32, i32* %7, align 4
  %87 = load i32, i32* %5, align 4
  %88 = add nsw i32 %86, %87
  %89 = icmp slt i32 %85, %88
  br i1 %89, label %90, label %103

90:                                               ; preds = %84
  %91 = load i32, i32* %8, align 4
  %92 = load i32, i32* %7, align 4
  %93 = sub nsw i32 %91, %92
  %94 = sext i32 %93 to i64
  %95 = getelementptr inbounds [256 x i8], [256 x i8]* %4, i64 0, i64 %94
  %96 = load i8, i8* %95, align 1
  %97 = load i32, i32* %8, align 4
  %98 = sext i32 %97 to i64
  %99 = getelementptr inbounds [256 x i8], [256 x i8]* %3, i64 0, i64 %98
  store i8 %96, i8* %99, align 1
  br label %100

100:                                              ; preds = %90
  %101 = load i32, i32* %8, align 4
  %102 = add nsw i32 %101, 1
  store i32 %102, i32* %8, align 4
  br label %84

103:                                              ; preds = %84
  br label %104

104:                                              ; preds = %103, %79
  %105 = getelementptr inbounds [256 x i8], [256 x i8]* %3, i64 0, i64 0
  %106 = call i32 (i8*, ...) @printf(i8* getelementptr inbounds ([4 x i8], [4 x i8]* @.str.1, i64 0, i64 0), i8* %105)
  %107 = load i32, i32* %1, align 4
  ret i32 %107
}

declare dso_local i32 @__isoc99_scanf(i8*, ...) #1

; Function Attrs: nounwind readonly
declare dso_local i64 @strlen(i8*) #2

declare dso_local i32 @printf(i8*, ...) #1


!llvm.module.flags = !{!0}
!llvm.ident = !{!1}

!0 = !{i32 1, !"wchar_size", i32 4}
!1 = !{!"clang version 10.0.0-4ubuntu1 "}
